
/opt/riscv-tests/isa/rv32ui-p-ori:     file format elf32-littleriscv


Disassembly of section .text:

00000000 <_start>:
   0:	0480006f          	jal	zero,48 <reset_vector>

00000004 <trap_vector>:
   4:	34202f73          	csrrs	t5,mcause,zero
   8:	00800f93          	addi	t6,zero,8
   c:	03ff0863          	beq	t5,t6,3c <write_tohost>
  10:	00900f93          	addi	t6,zero,9
  14:	03ff0463          	beq	t5,t6,3c <write_tohost>
  18:	00b00f93          	addi	t6,zero,11
  1c:	03ff0063          	beq	t5,t6,3c <write_tohost>
  20:	00000f13          	addi	t5,zero,0
  24:	000f0463          	beq	t5,zero,2c <trap_vector+0x28>
  28:	000f0067          	jalr	zero,0(t5)
  2c:	34202f73          	csrrs	t5,mcause,zero
  30:	000f5463          	bge	t5,zero,38 <handle_exception>
  34:	0040006f          	jal	zero,38 <handle_exception>

00000038 <handle_exception>:
  38:	5391e193          	ori	gp,gp,1337

0000003c <write_tohost>:
  3c:	00302023          	sw	gp,0(zero) # 0 <_start>
  40:	00002223          	sw	zero,4(zero) # 4 <trap_vector>
  44:	ff9ff06f          	jal	zero,3c <write_tohost>

00000048 <reset_vector>:
  48:	00000093          	addi	ra,zero,0
  4c:	00000113          	addi	sp,zero,0
  50:	00000193          	addi	gp,zero,0
  54:	00000213          	addi	tp,zero,0
  58:	00000293          	addi	t0,zero,0
  5c:	00000313          	addi	t1,zero,0
  60:	00000393          	addi	t2,zero,0
  64:	00000413          	addi	s0,zero,0
  68:	00000493          	addi	s1,zero,0
  6c:	00000513          	addi	a0,zero,0
  70:	00000593          	addi	a1,zero,0
  74:	00000613          	addi	a2,zero,0
  78:	00000693          	addi	a3,zero,0
  7c:	00000713          	addi	a4,zero,0
  80:	00000793          	addi	a5,zero,0
  84:	00000813          	addi	a6,zero,0
  88:	00000893          	addi	a7,zero,0
  8c:	00000913          	addi	s2,zero,0
  90:	00000993          	addi	s3,zero,0
  94:	00000a13          	addi	s4,zero,0
  98:	00000a93          	addi	s5,zero,0
  9c:	00000b13          	addi	s6,zero,0
  a0:	00000b93          	addi	s7,zero,0
  a4:	00000c13          	addi	s8,zero,0
  a8:	00000c93          	addi	s9,zero,0
  ac:	00000d13          	addi	s10,zero,0
  b0:	00000d93          	addi	s11,zero,0
  b4:	00000e13          	addi	t3,zero,0
  b8:	00000e93          	addi	t4,zero,0
  bc:	00000f13          	addi	t5,zero,0
  c0:	00000f93          	addi	t6,zero,0
  c4:	f1402573          	csrrs	a0,mhartid,zero
  c8:	00051063          	bne	a0,zero,c8 <reset_vector+0x80>
  cc:	00000297          	auipc	t0,0x0
  d0:	01028293          	addi	t0,t0,16 # dc <reset_vector+0x94>
  d4:	30529073          	csrrw	zero,mtvec,t0
  d8:	74445073          	csrrwi	zero,mnstatus,8
  dc:	00000297          	auipc	t0,0x0
  e0:	01028293          	addi	t0,t0,16 # ec <reset_vector+0xa4>
  e4:	30529073          	csrrw	zero,mtvec,t0
  e8:	18005073          	csrrwi	zero,satp,0
  ec:	00000297          	auipc	t0,0x0
  f0:	02028293          	addi	t0,t0,32 # 10c <reset_vector+0xc4>
  f4:	30529073          	csrrw	zero,mtvec,t0
  f8:	800002b7          	lui	t0,0x80000
  fc:	fff28293          	addi	t0,t0,-1 # 7fffffff <pass+0x7ffffc83>
 100:	3b029073          	csrrw	zero,pmpaddr0,t0
 104:	01f00293          	addi	t0,zero,31
 108:	3a029073          	csrrw	zero,pmpcfg0,t0
 10c:	30405073          	csrrwi	zero,mie,0
 110:	00000297          	auipc	t0,0x0
 114:	01428293          	addi	t0,t0,20 # 124 <reset_vector+0xdc>
 118:	30529073          	csrrw	zero,mtvec,t0
 11c:	30205073          	csrrwi	zero,medeleg,0
 120:	30305073          	csrrwi	zero,mideleg,0
 124:	00000193          	addi	gp,zero,0
 128:	00000297          	auipc	t0,0x0
 12c:	edc28293          	addi	t0,t0,-292 # 4 <trap_vector>
 130:	30529073          	csrrw	zero,mtvec,t0
 134:	00100513          	addi	a0,zero,1
 138:	01f51513          	slli	a0,a0,0x1f
 13c:	00054c63          	blt	a0,zero,154 <reset_vector+0x10c>
 140:	0ff0000f          	fence	iorw,iorw
 144:	00100193          	addi	gp,zero,1
 148:	05d00893          	addi	a7,zero,93
 14c:	00000513          	addi	a0,zero,0
 150:	00000073          	ecall
 154:	00000293          	addi	t0,zero,0
 158:	00028a63          	beq	t0,zero,16c <reset_vector+0x124>
 15c:	10529073          	csrrw	zero,stvec,t0
 160:	0000b2b7          	lui	t0,0xb
 164:	10928293          	addi	t0,t0,265 # b109 <pass+0xad8d>
 168:	30229073          	csrrw	zero,medeleg,t0
 16c:	30005073          	csrrwi	zero,mstatus,0
 170:	00000297          	auipc	t0,0x0
 174:	01428293          	addi	t0,t0,20 # 184 <test_2>
 178:	34129073          	csrrw	zero,mepc,t0
 17c:	f1402573          	csrrs	a0,mhartid,zero
 180:	30200073          	mret

00000184 <test_2>:
 184:	00200193          	addi	gp,zero,2
 188:	ff0106b7          	lui	a3,0xff010
 18c:	f0068693          	addi	a3,a3,-256 # ff00ff00 <pass+0xff00fb84>
 190:	f0f6e713          	ori	a4,a3,-241
 194:	f0f00393          	addi	t2,zero,-241
 198:	1c771463          	bne	a4,t2,360 <fail>

0000019c <test_3>:
 19c:	00300193          	addi	gp,zero,3
 1a0:	0ff016b7          	lui	a3,0xff01
 1a4:	ff068693          	addi	a3,a3,-16 # ff00ff0 <pass+0xff00c74>
 1a8:	0f06e713          	ori	a4,a3,240
 1ac:	0ff013b7          	lui	t2,0xff01
 1b0:	ff038393          	addi	t2,t2,-16 # ff00ff0 <pass+0xff00c74>
 1b4:	1a771663          	bne	a4,t2,360 <fail>

000001b8 <test_4>:
 1b8:	00400193          	addi	gp,zero,4
 1bc:	00ff06b7          	lui	a3,0xff0
 1c0:	0ff68693          	addi	a3,a3,255 # ff00ff <pass+0xfefd83>
 1c4:	70f6e713          	ori	a4,a3,1807
 1c8:	00ff03b7          	lui	t2,0xff0
 1cc:	7ff38393          	addi	t2,t2,2047 # ff07ff <pass+0xff0483>
 1d0:	18771863          	bne	a4,t2,360 <fail>

000001d4 <test_5>:
 1d4:	00500193          	addi	gp,zero,5
 1d8:	f00ff6b7          	lui	a3,0xf00ff
 1dc:	00f68693          	addi	a3,a3,15 # f00ff00f <pass+0xf00fec93>
 1e0:	0f06e713          	ori	a4,a3,240
 1e4:	f00ff3b7          	lui	t2,0xf00ff
 1e8:	0ff38393          	addi	t2,t2,255 # f00ff0ff <pass+0xf00fed83>
 1ec:	16771a63          	bne	a4,t2,360 <fail>

000001f0 <test_6>:
 1f0:	00600193          	addi	gp,zero,6
 1f4:	ff0105b7          	lui	a1,0xff010
 1f8:	f0058593          	addi	a1,a1,-256 # ff00ff00 <pass+0xff00fb84>
 1fc:	0f05e593          	ori	a1,a1,240
 200:	ff0103b7          	lui	t2,0xff010
 204:	ff038393          	addi	t2,t2,-16 # ff00fff0 <pass+0xff00fc74>
 208:	14759c63          	bne	a1,t2,360 <fail>

0000020c <test_7>:
 20c:	00700193          	addi	gp,zero,7
 210:	00000213          	addi	tp,zero,0
 214:	0ff010b7          	lui	ra,0xff01
 218:	ff008093          	addi	ra,ra,-16 # ff00ff0 <pass+0xff00c74>
 21c:	0f00e713          	ori	a4,ra,240
 220:	00070313          	addi	t1,a4,0
 224:	00120213          	addi	tp,tp,1 # 1 <_start+0x1>
 228:	00200293          	addi	t0,zero,2
 22c:	fe5214e3          	bne	tp,t0,214 <test_7+0x8>
 230:	0ff013b7          	lui	t2,0xff01
 234:	ff038393          	addi	t2,t2,-16 # ff00ff0 <pass+0xff00c74>
 238:	12731463          	bne	t1,t2,360 <fail>

0000023c <test_8>:
 23c:	00800193          	addi	gp,zero,8
 240:	00000213          	addi	tp,zero,0
 244:	00ff00b7          	lui	ra,0xff0
 248:	0ff08093          	addi	ra,ra,255 # ff00ff <pass+0xfefd83>
 24c:	70f0e713          	ori	a4,ra,1807
 250:	00000013          	addi	zero,zero,0
 254:	00070313          	addi	t1,a4,0
 258:	00120213          	addi	tp,tp,1 # 1 <_start+0x1>
 25c:	00200293          	addi	t0,zero,2
 260:	fe5212e3          	bne	tp,t0,244 <test_8+0x8>
 264:	00ff03b7          	lui	t2,0xff0
 268:	7ff38393          	addi	t2,t2,2047 # ff07ff <pass+0xff0483>
 26c:	0e731a63          	bne	t1,t2,360 <fail>

00000270 <test_9>:
 270:	00900193          	addi	gp,zero,9
 274:	00000213          	addi	tp,zero,0
 278:	f00ff0b7          	lui	ra,0xf00ff
 27c:	00f08093          	addi	ra,ra,15 # f00ff00f <pass+0xf00fec93>
 280:	0f00e713          	ori	a4,ra,240
 284:	00000013          	addi	zero,zero,0
 288:	00000013          	addi	zero,zero,0
 28c:	00070313          	addi	t1,a4,0
 290:	00120213          	addi	tp,tp,1 # 1 <_start+0x1>
 294:	00200293          	addi	t0,zero,2
 298:	fe5210e3          	bne	tp,t0,278 <test_9+0x8>
 29c:	f00ff3b7          	lui	t2,0xf00ff
 2a0:	0ff38393          	addi	t2,t2,255 # f00ff0ff <pass+0xf00fed83>
 2a4:	0a731e63          	bne	t1,t2,360 <fail>

000002a8 <test_10>:
 2a8:	00a00193          	addi	gp,zero,10
 2ac:	00000213          	addi	tp,zero,0
 2b0:	0ff010b7          	lui	ra,0xff01
 2b4:	ff008093          	addi	ra,ra,-16 # ff00ff0 <pass+0xff00c74>
 2b8:	0f00e713          	ori	a4,ra,240
 2bc:	00120213          	addi	tp,tp,1 # 1 <_start+0x1>
 2c0:	00200293          	addi	t0,zero,2
 2c4:	fe5216e3          	bne	tp,t0,2b0 <test_10+0x8>
 2c8:	0ff013b7          	lui	t2,0xff01
 2cc:	ff038393          	addi	t2,t2,-16 # ff00ff0 <pass+0xff00c74>
 2d0:	08771863          	bne	a4,t2,360 <fail>

000002d4 <test_11>:
 2d4:	00b00193          	addi	gp,zero,11
 2d8:	00000213          	addi	tp,zero,0
 2dc:	00ff00b7          	lui	ra,0xff0
 2e0:	0ff08093          	addi	ra,ra,255 # ff00ff <pass+0xfefd83>
 2e4:	00000013          	addi	zero,zero,0
 2e8:	f0f0e713          	ori	a4,ra,-241
 2ec:	00120213          	addi	tp,tp,1 # 1 <_start+0x1>
 2f0:	00200293          	addi	t0,zero,2
 2f4:	fe5214e3          	bne	tp,t0,2dc <test_11+0x8>
 2f8:	fff00393          	addi	t2,zero,-1
 2fc:	06771263          	bne	a4,t2,360 <fail>

00000300 <test_12>:
 300:	00c00193          	addi	gp,zero,12
 304:	00000213          	addi	tp,zero,0
 308:	f00ff0b7          	lui	ra,0xf00ff
 30c:	00f08093          	addi	ra,ra,15 # f00ff00f <pass+0xf00fec93>
 310:	00000013          	addi	zero,zero,0
 314:	00000013          	addi	zero,zero,0
 318:	0f00e713          	ori	a4,ra,240
 31c:	00120213          	addi	tp,tp,1 # 1 <_start+0x1>
 320:	00200293          	addi	t0,zero,2
 324:	fe5212e3          	bne	tp,t0,308 <test_12+0x8>
 328:	f00ff3b7          	lui	t2,0xf00ff
 32c:	0ff38393          	addi	t2,t2,255 # f00ff0ff <pass+0xf00fed83>
 330:	02771863          	bne	a4,t2,360 <fail>

00000334 <test_13>:
 334:	00d00193          	addi	gp,zero,13
 338:	0f006093          	ori	ra,zero,240
 33c:	0f000393          	addi	t2,zero,240
 340:	02709063          	bne	ra,t2,360 <fail>

00000344 <test_14>:
 344:	00e00193          	addi	gp,zero,14
 348:	00ff00b7          	lui	ra,0xff0
 34c:	0ff08093          	addi	ra,ra,255 # ff00ff <pass+0xfefd83>
 350:	70f0e013          	ori	zero,ra,1807
 354:	00000393          	addi	t2,zero,0
 358:	00701463          	bne	zero,t2,360 <fail>
 35c:	02301063          	bne	zero,gp,37c <pass>

00000360 <fail>:
 360:	0ff0000f          	fence	iorw,iorw
 364:	00018063          	beq	gp,zero,364 <fail+0x4>
 368:	00119193          	slli	gp,gp,0x1
 36c:	0011e193          	ori	gp,gp,1
 370:	05d00893          	addi	a7,zero,93
 374:	00018513          	addi	a0,gp,0
 378:	00000073          	ecall

0000037c <pass>:
 37c:	0ff0000f          	fence	iorw,iorw
 380:	00100193          	addi	gp,zero,1
 384:	05d00893          	addi	a7,zero,93
 388:	00000513          	addi	a0,zero,0
 38c:	00000073          	ecall
 390:	c0001073          	unimp
 394:	00000013          	addi	zero,zero,0
 398:	00000013          	addi	zero,zero,0
 39c:	00000013          	addi	zero,zero,0
 3a0:	00000013          	addi	zero,zero,0
 3a4:	00000013          	addi	zero,zero,0
 3a8:	00000013          	addi	zero,zero,0
 3ac:	00000013          	addi	zero,zero,0
 3b0:	00000013          	addi	zero,zero,0
