
/opt/riscv-tests/isa/rv32ui-p-srl:     file format elf32-littleriscv


Disassembly of section .text:

00000000 <_start>:
   0:	0480006f          	jal	zero,48 <reset_vector>

00000004 <trap_vector>:
   4:	34202f73          	csrrs	t5,mcause,zero
   8:	00800f93          	addi	t6,zero,8
   c:	03ff0863          	beq	t5,t6,3c <write_tohost>
  10:	00900f93          	addi	t6,zero,9
  14:	03ff0463          	beq	t5,t6,3c <write_tohost>
  18:	00b00f93          	addi	t6,zero,11
  1c:	03ff0063          	beq	t5,t6,3c <write_tohost>
  20:	00000f13          	addi	t5,zero,0
  24:	000f0463          	beq	t5,zero,2c <trap_vector+0x28>
  28:	000f0067          	jalr	zero,0(t5)
  2c:	34202f73          	csrrs	t5,mcause,zero
  30:	000f5463          	bge	t5,zero,38 <handle_exception>
  34:	0040006f          	jal	zero,38 <handle_exception>

00000038 <handle_exception>:
  38:	5391e193          	ori	gp,gp,1337

0000003c <write_tohost>:
  3c:	00302023          	sw	gp,0(zero) # 0 <_start>
  40:	00002223          	sw	zero,4(zero) # 4 <trap_vector>
  44:	ff9ff06f          	jal	zero,3c <write_tohost>

00000048 <reset_vector>:
  48:	00000093          	addi	ra,zero,0
  4c:	00000113          	addi	sp,zero,0
  50:	00000193          	addi	gp,zero,0
  54:	00000213          	addi	tp,zero,0
  58:	00000293          	addi	t0,zero,0
  5c:	00000313          	addi	t1,zero,0
  60:	00000393          	addi	t2,zero,0
  64:	00000413          	addi	s0,zero,0
  68:	00000493          	addi	s1,zero,0
  6c:	00000513          	addi	a0,zero,0
  70:	00000593          	addi	a1,zero,0
  74:	00000613          	addi	a2,zero,0
  78:	00000693          	addi	a3,zero,0
  7c:	00000713          	addi	a4,zero,0
  80:	00000793          	addi	a5,zero,0
  84:	00000813          	addi	a6,zero,0
  88:	00000893          	addi	a7,zero,0
  8c:	00000913          	addi	s2,zero,0
  90:	00000993          	addi	s3,zero,0
  94:	00000a13          	addi	s4,zero,0
  98:	00000a93          	addi	s5,zero,0
  9c:	00000b13          	addi	s6,zero,0
  a0:	00000b93          	addi	s7,zero,0
  a4:	00000c13          	addi	s8,zero,0
  a8:	00000c93          	addi	s9,zero,0
  ac:	00000d13          	addi	s10,zero,0
  b0:	00000d93          	addi	s11,zero,0
  b4:	00000e13          	addi	t3,zero,0
  b8:	00000e93          	addi	t4,zero,0
  bc:	00000f13          	addi	t5,zero,0
  c0:	00000f93          	addi	t6,zero,0
  c4:	f1402573          	csrrs	a0,mhartid,zero
  c8:	00051063          	bne	a0,zero,c8 <reset_vector+0x80>
  cc:	00000297          	auipc	t0,0x0
  d0:	01028293          	addi	t0,t0,16 # dc <reset_vector+0x94>
  d4:	30529073          	csrrw	zero,mtvec,t0
  d8:	74445073          	csrrwi	zero,mnstatus,8
  dc:	00000297          	auipc	t0,0x0
  e0:	01028293          	addi	t0,t0,16 # ec <reset_vector+0xa4>
  e4:	30529073          	csrrw	zero,mtvec,t0
  e8:	18005073          	csrrwi	zero,satp,0
  ec:	00000297          	auipc	t0,0x0
  f0:	02028293          	addi	t0,t0,32 # 10c <reset_vector+0xc4>
  f4:	30529073          	csrrw	zero,mtvec,t0
  f8:	800002b7          	lui	t0,0x80000
  fc:	fff28293          	addi	t0,t0,-1 # 7fffffff <pass+0x7ffff8db>
 100:	3b029073          	csrrw	zero,pmpaddr0,t0
 104:	01f00293          	addi	t0,zero,31
 108:	3a029073          	csrrw	zero,pmpcfg0,t0
 10c:	30405073          	csrrwi	zero,mie,0
 110:	00000297          	auipc	t0,0x0
 114:	01428293          	addi	t0,t0,20 # 124 <reset_vector+0xdc>
 118:	30529073          	csrrw	zero,mtvec,t0
 11c:	30205073          	csrrwi	zero,medeleg,0
 120:	30305073          	csrrwi	zero,mideleg,0
 124:	00000193          	addi	gp,zero,0
 128:	00000297          	auipc	t0,0x0
 12c:	edc28293          	addi	t0,t0,-292 # 4 <trap_vector>
 130:	30529073          	csrrw	zero,mtvec,t0
 134:	00100513          	addi	a0,zero,1
 138:	01f51513          	slli	a0,a0,0x1f
 13c:	00054c63          	blt	a0,zero,154 <reset_vector+0x10c>
 140:	0ff0000f          	fence	iorw,iorw
 144:	00100193          	addi	gp,zero,1
 148:	05d00893          	addi	a7,zero,93
 14c:	00000513          	addi	a0,zero,0
 150:	00000073          	ecall
 154:	00000293          	addi	t0,zero,0
 158:	00028a63          	beq	t0,zero,16c <reset_vector+0x124>
 15c:	10529073          	csrrw	zero,stvec,t0
 160:	0000b2b7          	lui	t0,0xb
 164:	10928293          	addi	t0,t0,265 # b109 <pass+0xa9e5>
 168:	30229073          	csrrw	zero,medeleg,t0
 16c:	30005073          	csrrwi	zero,mstatus,0
 170:	00000297          	auipc	t0,0x0
 174:	01428293          	addi	t0,t0,20 # 184 <test_2>
 178:	34129073          	csrrw	zero,mepc,t0
 17c:	f1402573          	csrrs	a0,mhartid,zero
 180:	30200073          	mret

00000184 <test_2>:
 184:	00200193          	addi	gp,zero,2
 188:	800005b7          	lui	a1,0x80000
 18c:	00000613          	addi	a2,zero,0
 190:	00c5d733          	srl	a4,a1,a2
 194:	800003b7          	lui	t2,0x80000
 198:	56771863          	bne	a4,t2,708 <fail>

0000019c <test_3>:
 19c:	00300193          	addi	gp,zero,3
 1a0:	800005b7          	lui	a1,0x80000
 1a4:	00100613          	addi	a2,zero,1
 1a8:	00c5d733          	srl	a4,a1,a2
 1ac:	400003b7          	lui	t2,0x40000
 1b0:	54771c63          	bne	a4,t2,708 <fail>

000001b4 <test_4>:
 1b4:	00400193          	addi	gp,zero,4
 1b8:	800005b7          	lui	a1,0x80000
 1bc:	00700613          	addi	a2,zero,7
 1c0:	00c5d733          	srl	a4,a1,a2
 1c4:	010003b7          	lui	t2,0x1000
 1c8:	54771063          	bne	a4,t2,708 <fail>

000001cc <test_5>:
 1cc:	00500193          	addi	gp,zero,5
 1d0:	800005b7          	lui	a1,0x80000
 1d4:	00e00613          	addi	a2,zero,14
 1d8:	00c5d733          	srl	a4,a1,a2
 1dc:	000203b7          	lui	t2,0x20
 1e0:	52771463          	bne	a4,t2,708 <fail>

000001e4 <test_6>:
 1e4:	00600193          	addi	gp,zero,6
 1e8:	800005b7          	lui	a1,0x80000
 1ec:	00158593          	addi	a1,a1,1 # 80000001 <pass+0x7ffff8dd>
 1f0:	01f00613          	addi	a2,zero,31
 1f4:	00c5d733          	srl	a4,a1,a2
 1f8:	00100393          	addi	t2,zero,1
 1fc:	50771663          	bne	a4,t2,708 <fail>

00000200 <test_7>:
 200:	00700193          	addi	gp,zero,7
 204:	fff00593          	addi	a1,zero,-1
 208:	00000613          	addi	a2,zero,0
 20c:	00c5d733          	srl	a4,a1,a2
 210:	fff00393          	addi	t2,zero,-1
 214:	4e771a63          	bne	a4,t2,708 <fail>

00000218 <test_8>:
 218:	00800193          	addi	gp,zero,8
 21c:	fff00593          	addi	a1,zero,-1
 220:	00100613          	addi	a2,zero,1
 224:	00c5d733          	srl	a4,a1,a2
 228:	800003b7          	lui	t2,0x80000
 22c:	fff38393          	addi	t2,t2,-1 # 7fffffff <pass+0x7ffff8db>
 230:	4c771c63          	bne	a4,t2,708 <fail>

00000234 <test_9>:
 234:	00900193          	addi	gp,zero,9
 238:	fff00593          	addi	a1,zero,-1
 23c:	00700613          	addi	a2,zero,7
 240:	00c5d733          	srl	a4,a1,a2
 244:	020003b7          	lui	t2,0x2000
 248:	fff38393          	addi	t2,t2,-1 # 1ffffff <pass+0x1fff8db>
 24c:	4a771e63          	bne	a4,t2,708 <fail>

00000250 <test_10>:
 250:	00a00193          	addi	gp,zero,10
 254:	fff00593          	addi	a1,zero,-1
 258:	00e00613          	addi	a2,zero,14
 25c:	00c5d733          	srl	a4,a1,a2
 260:	000403b7          	lui	t2,0x40
 264:	fff38393          	addi	t2,t2,-1 # 3ffff <pass+0x3f8db>
 268:	4a771063          	bne	a4,t2,708 <fail>

0000026c <test_11>:
 26c:	00b00193          	addi	gp,zero,11
 270:	fff00593          	addi	a1,zero,-1
 274:	01f00613          	addi	a2,zero,31
 278:	00c5d733          	srl	a4,a1,a2
 27c:	00100393          	addi	t2,zero,1
 280:	48771463          	bne	a4,t2,708 <fail>

00000284 <test_12>:
 284:	00c00193          	addi	gp,zero,12
 288:	212125b7          	lui	a1,0x21212
 28c:	12158593          	addi	a1,a1,289 # 21212121 <pass+0x212119fd>
 290:	00000613          	addi	a2,zero,0
 294:	00c5d733          	srl	a4,a1,a2
 298:	212123b7          	lui	t2,0x21212
 29c:	12138393          	addi	t2,t2,289 # 21212121 <pass+0x212119fd>
 2a0:	46771463          	bne	a4,t2,708 <fail>

000002a4 <test_13>:
 2a4:	00d00193          	addi	gp,zero,13
 2a8:	212125b7          	lui	a1,0x21212
 2ac:	12158593          	addi	a1,a1,289 # 21212121 <pass+0x212119fd>
 2b0:	00100613          	addi	a2,zero,1
 2b4:	00c5d733          	srl	a4,a1,a2
 2b8:	109093b7          	lui	t2,0x10909
 2bc:	09038393          	addi	t2,t2,144 # 10909090 <pass+0x1090896c>
 2c0:	44771463          	bne	a4,t2,708 <fail>

000002c4 <test_14>:
 2c4:	00e00193          	addi	gp,zero,14
 2c8:	212125b7          	lui	a1,0x21212
 2cc:	12158593          	addi	a1,a1,289 # 21212121 <pass+0x212119fd>
 2d0:	00700613          	addi	a2,zero,7
 2d4:	00c5d733          	srl	a4,a1,a2
 2d8:	004243b7          	lui	t2,0x424
 2dc:	24238393          	addi	t2,t2,578 # 424242 <pass+0x423b1e>
 2e0:	42771463          	bne	a4,t2,708 <fail>

000002e4 <test_15>:
 2e4:	00f00193          	addi	gp,zero,15
 2e8:	212125b7          	lui	a1,0x21212
 2ec:	12158593          	addi	a1,a1,289 # 21212121 <pass+0x212119fd>
 2f0:	00e00613          	addi	a2,zero,14
 2f4:	00c5d733          	srl	a4,a1,a2
 2f8:	000083b7          	lui	t2,0x8
 2fc:	48438393          	addi	t2,t2,1156 # 8484 <pass+0x7d60>
 300:	40771463          	bne	a4,t2,708 <fail>

00000304 <test_16>:
 304:	01000193          	addi	gp,zero,16
 308:	212125b7          	lui	a1,0x21212
 30c:	12158593          	addi	a1,a1,289 # 21212121 <pass+0x212119fd>
 310:	01f00613          	addi	a2,zero,31
 314:	00c5d733          	srl	a4,a1,a2
 318:	00000393          	addi	t2,zero,0
 31c:	3e771663          	bne	a4,t2,708 <fail>

00000320 <test_17>:
 320:	01100193          	addi	gp,zero,17
 324:	212125b7          	lui	a1,0x21212
 328:	12158593          	addi	a1,a1,289 # 21212121 <pass+0x212119fd>
 32c:	fc000613          	addi	a2,zero,-64
 330:	00c5d733          	srl	a4,a1,a2
 334:	212123b7          	lui	t2,0x21212
 338:	12138393          	addi	t2,t2,289 # 21212121 <pass+0x212119fd>
 33c:	3c771663          	bne	a4,t2,708 <fail>

00000340 <test_18>:
 340:	01200193          	addi	gp,zero,18
 344:	212125b7          	lui	a1,0x21212
 348:	12158593          	addi	a1,a1,289 # 21212121 <pass+0x212119fd>
 34c:	fc100613          	addi	a2,zero,-63
 350:	00c5d733          	srl	a4,a1,a2
 354:	109093b7          	lui	t2,0x10909
 358:	09038393          	addi	t2,t2,144 # 10909090 <pass+0x1090896c>
 35c:	3a771663          	bne	a4,t2,708 <fail>

00000360 <test_19>:
 360:	01300193          	addi	gp,zero,19
 364:	212125b7          	lui	a1,0x21212
 368:	12158593          	addi	a1,a1,289 # 21212121 <pass+0x212119fd>
 36c:	fc700613          	addi	a2,zero,-57
 370:	00c5d733          	srl	a4,a1,a2
 374:	004243b7          	lui	t2,0x424
 378:	24238393          	addi	t2,t2,578 # 424242 <pass+0x423b1e>
 37c:	38771663          	bne	a4,t2,708 <fail>

00000380 <test_20>:
 380:	01400193          	addi	gp,zero,20
 384:	212125b7          	lui	a1,0x21212
 388:	12158593          	addi	a1,a1,289 # 21212121 <pass+0x212119fd>
 38c:	fce00613          	addi	a2,zero,-50
 390:	00c5d733          	srl	a4,a1,a2
 394:	000083b7          	lui	t2,0x8
 398:	48438393          	addi	t2,t2,1156 # 8484 <pass+0x7d60>
 39c:	36771663          	bne	a4,t2,708 <fail>

000003a0 <test_21>:
 3a0:	01500193          	addi	gp,zero,21
 3a4:	212125b7          	lui	a1,0x21212
 3a8:	12158593          	addi	a1,a1,289 # 21212121 <pass+0x212119fd>
 3ac:	fff00613          	addi	a2,zero,-1
 3b0:	00c5d733          	srl	a4,a1,a2
 3b4:	00000393          	addi	t2,zero,0
 3b8:	34771863          	bne	a4,t2,708 <fail>

000003bc <test_22>:
 3bc:	01600193          	addi	gp,zero,22
 3c0:	800005b7          	lui	a1,0x80000
 3c4:	00700613          	addi	a2,zero,7
 3c8:	00c5d5b3          	srl	a1,a1,a2
 3cc:	010003b7          	lui	t2,0x1000
 3d0:	32759c63          	bne	a1,t2,708 <fail>

000003d4 <test_23>:
 3d4:	01700193          	addi	gp,zero,23
 3d8:	800005b7          	lui	a1,0x80000
 3dc:	00e00613          	addi	a2,zero,14
 3e0:	00c5d633          	srl	a2,a1,a2
 3e4:	000203b7          	lui	t2,0x20
 3e8:	32761063          	bne	a2,t2,708 <fail>

000003ec <test_24>:
 3ec:	01800193          	addi	gp,zero,24
 3f0:	00700593          	addi	a1,zero,7
 3f4:	00b5d5b3          	srl	a1,a1,a1
 3f8:	00000393          	addi	t2,zero,0
 3fc:	30759663          	bne	a1,t2,708 <fail>

00000400 <test_25>:
 400:	01900193          	addi	gp,zero,25
 404:	00000213          	addi	tp,zero,0
 408:	800000b7          	lui	ra,0x80000
 40c:	00700113          	addi	sp,zero,7
 410:	0020d733          	srl	a4,ra,sp
 414:	00070313          	addi	t1,a4,0
 418:	00120213          	addi	tp,tp,1 # 1 <_start+0x1>
 41c:	00200293          	addi	t0,zero,2
 420:	fe5214e3          	bne	tp,t0,408 <test_25+0x8>
 424:	010003b7          	lui	t2,0x1000
 428:	2e731063          	bne	t1,t2,708 <fail>

0000042c <test_26>:
 42c:	01a00193          	addi	gp,zero,26
 430:	00000213          	addi	tp,zero,0
 434:	800000b7          	lui	ra,0x80000
 438:	00e00113          	addi	sp,zero,14
 43c:	0020d733          	srl	a4,ra,sp
 440:	00000013          	addi	zero,zero,0
 444:	00070313          	addi	t1,a4,0
 448:	00120213          	addi	tp,tp,1 # 1 <_start+0x1>
 44c:	00200293          	addi	t0,zero,2
 450:	fe5212e3          	bne	tp,t0,434 <test_26+0x8>
 454:	000203b7          	lui	t2,0x20
 458:	2a731863          	bne	t1,t2,708 <fail>

0000045c <test_27>:
 45c:	01b00193          	addi	gp,zero,27
 460:	00000213          	addi	tp,zero,0
 464:	800000b7          	lui	ra,0x80000
 468:	01f00113          	addi	sp,zero,31
 46c:	0020d733          	srl	a4,ra,sp
 470:	00000013          	addi	zero,zero,0
 474:	00000013          	addi	zero,zero,0
 478:	00070313          	addi	t1,a4,0
 47c:	00120213          	addi	tp,tp,1 # 1 <_start+0x1>
 480:	00200293          	addi	t0,zero,2
 484:	fe5210e3          	bne	tp,t0,464 <test_27+0x8>
 488:	00100393          	addi	t2,zero,1
 48c:	26731e63          	bne	t1,t2,708 <fail>

00000490 <test_28>:
 490:	01c00193          	addi	gp,zero,28
 494:	00000213          	addi	tp,zero,0
 498:	800000b7          	lui	ra,0x80000
 49c:	00700113          	addi	sp,zero,7
 4a0:	0020d733          	srl	a4,ra,sp
 4a4:	00120213          	addi	tp,tp,1 # 1 <_start+0x1>
 4a8:	00200293          	addi	t0,zero,2
 4ac:	fe5216e3          	bne	tp,t0,498 <test_28+0x8>
 4b0:	010003b7          	lui	t2,0x1000
 4b4:	24771a63          	bne	a4,t2,708 <fail>

000004b8 <test_29>:
 4b8:	01d00193          	addi	gp,zero,29
 4bc:	00000213          	addi	tp,zero,0
 4c0:	800000b7          	lui	ra,0x80000
 4c4:	00e00113          	addi	sp,zero,14
 4c8:	00000013          	addi	zero,zero,0
 4cc:	0020d733          	srl	a4,ra,sp
 4d0:	00120213          	addi	tp,tp,1 # 1 <_start+0x1>
 4d4:	00200293          	addi	t0,zero,2
 4d8:	fe5214e3          	bne	tp,t0,4c0 <test_29+0x8>
 4dc:	000203b7          	lui	t2,0x20
 4e0:	22771463          	bne	a4,t2,708 <fail>

000004e4 <test_30>:
 4e4:	01e00193          	addi	gp,zero,30
 4e8:	00000213          	addi	tp,zero,0
 4ec:	800000b7          	lui	ra,0x80000
 4f0:	01f00113          	addi	sp,zero,31
 4f4:	00000013          	addi	zero,zero,0
 4f8:	00000013          	addi	zero,zero,0
 4fc:	0020d733          	srl	a4,ra,sp
 500:	00120213          	addi	tp,tp,1 # 1 <_start+0x1>
 504:	00200293          	addi	t0,zero,2
 508:	fe5212e3          	bne	tp,t0,4ec <test_30+0x8>
 50c:	00100393          	addi	t2,zero,1
 510:	1e771c63          	bne	a4,t2,708 <fail>

00000514 <test_31>:
 514:	01f00193          	addi	gp,zero,31
 518:	00000213          	addi	tp,zero,0
 51c:	800000b7          	lui	ra,0x80000
 520:	00000013          	addi	zero,zero,0
 524:	00700113          	addi	sp,zero,7
 528:	0020d733          	srl	a4,ra,sp
 52c:	00120213          	addi	tp,tp,1 # 1 <_start+0x1>
 530:	00200293          	addi	t0,zero,2
 534:	fe5214e3          	bne	tp,t0,51c <test_31+0x8>
 538:	010003b7          	lui	t2,0x1000
 53c:	1c771663          	bne	a4,t2,708 <fail>

00000540 <test_32>:
 540:	02000193          	addi	gp,zero,32
 544:	00000213          	addi	tp,zero,0
 548:	800000b7          	lui	ra,0x80000
 54c:	00000013          	addi	zero,zero,0
 550:	00e00113          	addi	sp,zero,14
 554:	00000013          	addi	zero,zero,0
 558:	0020d733          	srl	a4,ra,sp
 55c:	00120213          	addi	tp,tp,1 # 1 <_start+0x1>
 560:	00200293          	addi	t0,zero,2
 564:	fe5212e3          	bne	tp,t0,548 <test_32+0x8>
 568:	000203b7          	lui	t2,0x20
 56c:	18771e63          	bne	a4,t2,708 <fail>

00000570 <test_33>:
 570:	02100193          	addi	gp,zero,33
 574:	00000213          	addi	tp,zero,0
 578:	800000b7          	lui	ra,0x80000
 57c:	00000013          	addi	zero,zero,0
 580:	00000013          	addi	zero,zero,0
 584:	01f00113          	addi	sp,zero,31
 588:	0020d733          	srl	a4,ra,sp
 58c:	00120213          	addi	tp,tp,1 # 1 <_start+0x1>
 590:	00200293          	addi	t0,zero,2
 594:	fe5212e3          	bne	tp,t0,578 <test_33+0x8>
 598:	00100393          	addi	t2,zero,1
 59c:	16771663          	bne	a4,t2,708 <fail>

000005a0 <test_34>:
 5a0:	02200193          	addi	gp,zero,34
 5a4:	00000213          	addi	tp,zero,0
 5a8:	00700113          	addi	sp,zero,7
 5ac:	800000b7          	lui	ra,0x80000
 5b0:	0020d733          	srl	a4,ra,sp
 5b4:	00120213          	addi	tp,tp,1 # 1 <_start+0x1>
 5b8:	00200293          	addi	t0,zero,2
 5bc:	fe5216e3          	bne	tp,t0,5a8 <test_34+0x8>
 5c0:	010003b7          	lui	t2,0x1000
 5c4:	14771263          	bne	a4,t2,708 <fail>

000005c8 <test_35>:
 5c8:	02300193          	addi	gp,zero,35
 5cc:	00000213          	addi	tp,zero,0
 5d0:	00e00113          	addi	sp,zero,14
 5d4:	800000b7          	lui	ra,0x80000
 5d8:	00000013          	addi	zero,zero,0
 5dc:	0020d733          	srl	a4,ra,sp
 5e0:	00120213          	addi	tp,tp,1 # 1 <_start+0x1>
 5e4:	00200293          	addi	t0,zero,2
 5e8:	fe5214e3          	bne	tp,t0,5d0 <test_35+0x8>
 5ec:	000203b7          	lui	t2,0x20
 5f0:	10771c63          	bne	a4,t2,708 <fail>

000005f4 <test_36>:
 5f4:	02400193          	addi	gp,zero,36
 5f8:	00000213          	addi	tp,zero,0
 5fc:	01f00113          	addi	sp,zero,31
 600:	800000b7          	lui	ra,0x80000
 604:	00000013          	addi	zero,zero,0
 608:	00000013          	addi	zero,zero,0
 60c:	0020d733          	srl	a4,ra,sp
 610:	00120213          	addi	tp,tp,1 # 1 <_start+0x1>
 614:	00200293          	addi	t0,zero,2
 618:	fe5212e3          	bne	tp,t0,5fc <test_36+0x8>
 61c:	00100393          	addi	t2,zero,1
 620:	0e771463          	bne	a4,t2,708 <fail>

00000624 <test_37>:
 624:	02500193          	addi	gp,zero,37
 628:	00000213          	addi	tp,zero,0
 62c:	00700113          	addi	sp,zero,7
 630:	00000013          	addi	zero,zero,0
 634:	800000b7          	lui	ra,0x80000
 638:	0020d733          	srl	a4,ra,sp
 63c:	00120213          	addi	tp,tp,1 # 1 <_start+0x1>
 640:	00200293          	addi	t0,zero,2
 644:	fe5214e3          	bne	tp,t0,62c <test_37+0x8>
 648:	010003b7          	lui	t2,0x1000
 64c:	0a771e63          	bne	a4,t2,708 <fail>

00000650 <test_38>:
 650:	02600193          	addi	gp,zero,38
 654:	00000213          	addi	tp,zero,0
 658:	00e00113          	addi	sp,zero,14
 65c:	00000013          	addi	zero,zero,0
 660:	800000b7          	lui	ra,0x80000
 664:	00000013          	addi	zero,zero,0
 668:	0020d733          	srl	a4,ra,sp
 66c:	00120213          	addi	tp,tp,1 # 1 <_start+0x1>
 670:	00200293          	addi	t0,zero,2
 674:	fe5212e3          	bne	tp,t0,658 <test_38+0x8>
 678:	000203b7          	lui	t2,0x20
 67c:	08771663          	bne	a4,t2,708 <fail>

00000680 <test_39>:
 680:	02700193          	addi	gp,zero,39
 684:	00000213          	addi	tp,zero,0
 688:	01f00113          	addi	sp,zero,31
 68c:	00000013          	addi	zero,zero,0
 690:	00000013          	addi	zero,zero,0
 694:	800000b7          	lui	ra,0x80000
 698:	0020d733          	srl	a4,ra,sp
 69c:	00120213          	addi	tp,tp,1 # 1 <_start+0x1>
 6a0:	00200293          	addi	t0,zero,2
 6a4:	fe5212e3          	bne	tp,t0,688 <test_39+0x8>
 6a8:	00100393          	addi	t2,zero,1
 6ac:	04771e63          	bne	a4,t2,708 <fail>

000006b0 <test_40>:
 6b0:	02800193          	addi	gp,zero,40
 6b4:	00f00093          	addi	ra,zero,15
 6b8:	00105133          	srl	sp,zero,ra
 6bc:	00000393          	addi	t2,zero,0
 6c0:	04711463          	bne	sp,t2,708 <fail>

000006c4 <test_41>:
 6c4:	02900193          	addi	gp,zero,41
 6c8:	02000093          	addi	ra,zero,32
 6cc:	0000d133          	srl	sp,ra,zero
 6d0:	02000393          	addi	t2,zero,32
 6d4:	02711a63          	bne	sp,t2,708 <fail>

000006d8 <test_42>:
 6d8:	02a00193          	addi	gp,zero,42
 6dc:	000050b3          	srl	ra,zero,zero
 6e0:	00000393          	addi	t2,zero,0
 6e4:	02709263          	bne	ra,t2,708 <fail>

000006e8 <test_43>:
 6e8:	02b00193          	addi	gp,zero,43
 6ec:	40000093          	addi	ra,zero,1024
 6f0:	00001137          	lui	sp,0x1
 6f4:	80010113          	addi	sp,sp,-2048 # 800 <pass+0xdc>
 6f8:	0020d033          	srl	zero,ra,sp
 6fc:	00000393          	addi	t2,zero,0
 700:	00701463          	bne	zero,t2,708 <fail>
 704:	02301063          	bne	zero,gp,724 <pass>

00000708 <fail>:
 708:	0ff0000f          	fence	iorw,iorw
 70c:	00018063          	beq	gp,zero,70c <fail+0x4>
 710:	00119193          	slli	gp,gp,0x1
 714:	0011e193          	ori	gp,gp,1
 718:	05d00893          	addi	a7,zero,93
 71c:	00018513          	addi	a0,gp,0
 720:	00000073          	ecall

00000724 <pass>:
 724:	0ff0000f          	fence	iorw,iorw
 728:	00100193          	addi	gp,zero,1
 72c:	05d00893          	addi	a7,zero,93
 730:	00000513          	addi	a0,zero,0
 734:	00000073          	ecall
 738:	c0001073          	unimp
 73c:	00000013          	addi	zero,zero,0
 740:	00000013          	addi	zero,zero,0
 744:	00000013          	addi	zero,zero,0
 748:	00000013          	addi	zero,zero,0
 74c:	00000013          	addi	zero,zero,0
 750:	00000013          	addi	zero,zero,0
 754:	00000013          	addi	zero,zero,0
 758:	00000013          	addi	zero,zero,0
 75c:	00000013          	addi	zero,zero,0
 760:	00000013          	addi	zero,zero,0
 764:	00000013          	addi	zero,zero,0
 768:	00000013          	addi	zero,zero,0
 76c:	00000013          	addi	zero,zero,0
 770:	00000013          	addi	zero,zero,0
