
sw_tc/tc_subfunc.elf:     file format elf32-littleriscv


Disassembly of section .reset:

00000000 <_reset>:
 */

__attribute__((section(".reset"), naked))
void _reset(void) {
    /* Set up stack pointer: top of data memory */
    __asm__ volatile (
   0:	00004137          	lui	sp,0x4
   4:	07c0006f          	j	80 <main>
        "li sp, 0x4000\n"   /* 16K = top of 4096-word data memory */
        "j  main\n"
    );
}
   8:	00000013          	nop

Disassembly of section .trap:

00000010 <_trap_handler>:

__attribute__((section(".trap"), interrupt))
void _trap_handler(void) {
  10:	fe010113          	addi	sp,sp,-32 # 3fe0 <main+0x3f60>
  14:	00112e23          	sw	ra,28(sp)
  18:	00812c23          	sw	s0,24(sp)
  1c:	00e12a23          	sw	a4,20(sp)
  20:	00f12823          	sw	a5,16(sp)
  24:	02010413          	addi	s0,sp,32
    volatile uint32_t *tohost = (volatile uint32_t *)0x3FF8;
  28:	000047b7          	lui	a5,0x4
  2c:	ff878793          	addi	a5,a5,-8 # 3ff8 <main+0x3f78>
  30:	fef42623          	sw	a5,-20(s0)
    *tohost = 0xDEADBEEF;   /* signal that a trap occurred */
  34:	fec42783          	lw	a5,-20(s0)
  38:	deadc737          	lui	a4,0xdeadc
  3c:	eef70713          	addi	a4,a4,-273 # deadbeef <main+0xdeadbe6f>
  40:	00e7a023          	sw	a4,0(a5)
    while (1);               /* halt — or use wfi */
  44:	0000006f          	j	44 <_trap_handler+0x34>

Disassembly of section .text:

00000048 <add>:
#include "handlers.c"    
#include <stdint.h>

int add(int a, int b){
  48:	fe010113          	addi	sp,sp,-32
  4c:	00112e23          	sw	ra,28(sp)
  50:	00812c23          	sw	s0,24(sp)
  54:	02010413          	addi	s0,sp,32
  58:	fea42623          	sw	a0,-20(s0)
  5c:	feb42423          	sw	a1,-24(s0)
    return a+b;
  60:	fec42703          	lw	a4,-20(s0)
  64:	fe842783          	lw	a5,-24(s0)
  68:	00f707b3          	add	a5,a4,a5
}
  6c:	00078513          	mv	a0,a5
  70:	01c12083          	lw	ra,28(sp)
  74:	01812403          	lw	s0,24(sp)
  78:	02010113          	addi	sp,sp,32
  7c:	00008067          	ret

00000080 <main>:

int main (void){
  80:	fe010113          	addi	sp,sp,-32
  84:	00112e23          	sw	ra,28(sp)
  88:	00812c23          	sw	s0,24(sp)
  8c:	02010413          	addi	s0,sp,32
    // define a, b
    uint32_t a=10, b=20; 
  90:	00a00793          	li	a5,10
  94:	fef42623          	sw	a5,-20(s0)
  98:	01400793          	li	a5,20
  9c:	fef42423          	sw	a5,-24(s0)

    // define result, to_host
    volatile uint32_t *result = (volatile uint32_t *)0x0100;
  a0:	10000793          	li	a5,256
  a4:	fef42223          	sw	a5,-28(s0)
    volatile uint32_t *to_host = (volatile uint32_t *)0x01FC;
  a8:	1fc00793          	li	a5,508
  ac:	fef42023          	sw	a5,-32(s0)

    *result = add(a, b);
  b0:	fec42783          	lw	a5,-20(s0)
  b4:	fe842703          	lw	a4,-24(s0)
  b8:	00070593          	mv	a1,a4
  bc:	00078513          	mv	a0,a5
  c0:	f89ff0ef          	jal	48 <add>
  c4:	00050793          	mv	a5,a0
  c8:	00078713          	mv	a4,a5
  cc:	fe442783          	lw	a5,-28(s0)
  d0:	00e7a023          	sw	a4,0(a5)

    // condition
    if (*result == (30)){
  d4:	fe442783          	lw	a5,-28(s0)
  d8:	0007a703          	lw	a4,0(a5)
  dc:	01e00793          	li	a5,30
  e0:	00f71c63          	bne	a4,a5,f8 <main+0x78>
        // write cafecafe
        *to_host = 0xCAFECAFE;
  e4:	fe042783          	lw	a5,-32(s0)
  e8:	cafed737          	lui	a4,0xcafed
  ec:	afe70713          	addi	a4,a4,-1282 # cafecafe <main+0xcafeca7e>
  f0:	00e7a023          	sw	a4,0(a5)
  f4:	0140006f          	j	108 <main+0x88>
    } else {
        // write deadbeef
        *to_host = 0xDEADBEEF;
  f8:	fe042783          	lw	a5,-32(s0)
  fc:	deadc737          	lui	a4,0xdeadc
 100:	eef70713          	addi	a4,a4,-273 # deadbeef <main+0xdeadbe6f>
 104:	00e7a023          	sw	a4,0(a5)
    }
    
    while(1);
 108:	0000006f          	j	108 <main+0x88>
