
/opt/riscv-tests/isa/rv32ui-p-lw:     file format elf32-littleriscv


Disassembly of section .text:

00000000 <_start>:
   0:	0480006f          	jal	zero,48 <reset_vector>

00000004 <trap_vector>:
   4:	34202f73          	csrrs	t5,mcause,zero
   8:	00800f93          	addi	t6,zero,8
   c:	03ff0863          	beq	t5,t6,3c <write_tohost>
  10:	00900f93          	addi	t6,zero,9
  14:	03ff0463          	beq	t5,t6,3c <write_tohost>
  18:	00b00f93          	addi	t6,zero,11
  1c:	03ff0063          	beq	t5,t6,3c <write_tohost>
  20:	00000f13          	addi	t5,zero,0
  24:	000f0463          	beq	t5,zero,2c <end_signature+0x1c>
  28:	000f0067          	jalr	zero,0(t5)
  2c:	34202f73          	csrrs	t5,mcause,zero
  30:	000f5463          	bge	t5,zero,38 <handle_exception>
  34:	0040006f          	jal	zero,38 <handle_exception>

00000038 <handle_exception>:
  38:	5391e193          	ori	gp,gp,1337

0000003c <write_tohost>:
  3c:	04302023          	sw	gp,64(zero) # 40 <tohost>
  40:	04002223          	sw	zero,68(zero) # 44 <tohost+0x4>
  44:	ff9ff06f          	jal	zero,3c <write_tohost>

00000048 <reset_vector>:
  48:	00000093          	addi	ra,zero,0
  4c:	00000113          	addi	sp,zero,0
  50:	00000193          	addi	gp,zero,0
  54:	00000213          	addi	tp,zero,0
  58:	00000293          	addi	t0,zero,0
  5c:	00000313          	addi	t1,zero,0
  60:	00000393          	addi	t2,zero,0
  64:	00000413          	addi	s0,zero,0
  68:	00000493          	addi	s1,zero,0
  6c:	00000513          	addi	a0,zero,0
  70:	00000593          	addi	a1,zero,0
  74:	00000613          	addi	a2,zero,0
  78:	00000693          	addi	a3,zero,0
  7c:	00000713          	addi	a4,zero,0
  80:	00000793          	addi	a5,zero,0
  84:	00000813          	addi	a6,zero,0
  88:	00000893          	addi	a7,zero,0
  8c:	00000913          	addi	s2,zero,0
  90:	00000993          	addi	s3,zero,0
  94:	00000a13          	addi	s4,zero,0
  98:	00000a93          	addi	s5,zero,0
  9c:	00000b13          	addi	s6,zero,0
  a0:	00000b93          	addi	s7,zero,0
  a4:	00000c13          	addi	s8,zero,0
  a8:	00000c93          	addi	s9,zero,0
  ac:	00000d13          	addi	s10,zero,0
  b0:	00000d93          	addi	s11,zero,0
  b4:	00000e13          	addi	t3,zero,0
  b8:	00000e93          	addi	t4,zero,0
  bc:	00000f13          	addi	t5,zero,0
  c0:	00000f93          	addi	t6,zero,0
  c4:	f1402573          	csrrs	a0,mhartid,zero
  c8:	00051063          	bne	a0,zero,c8 <_end+0x40>
  cc:	00000297          	auipc	t0,0x0
  d0:	01028293          	addi	t0,t0,16 # dc <_end+0x54>
  d4:	30529073          	csrrw	zero,mtvec,t0
  d8:	74445073          	csrrwi	zero,mnstatus,8
  dc:	00000297          	auipc	t0,0x0
  e0:	01028293          	addi	t0,t0,16 # ec <_end+0x64>
  e4:	30529073          	csrrw	zero,mtvec,t0
  e8:	18005073          	csrrwi	zero,satp,0
  ec:	00000297          	auipc	t0,0x0
  f0:	02028293          	addi	t0,t0,32 # 10c <_end+0x84>
  f4:	30529073          	csrrw	zero,mtvec,t0
  f8:	800002b7          	lui	t0,0x80000
  fc:	fff28293          	addi	t0,t0,-1 # 7fffffff <pass+0x7ffffbdb>
 100:	3b029073          	csrrw	zero,pmpaddr0,t0
 104:	01f00293          	addi	t0,zero,31
 108:	3a029073          	csrrw	zero,pmpcfg0,t0
 10c:	30405073          	csrrwi	zero,mie,0
 110:	00000297          	auipc	t0,0x0
 114:	01428293          	addi	t0,t0,20 # 124 <_end+0x9c>
 118:	30529073          	csrrw	zero,mtvec,t0
 11c:	30205073          	csrrwi	zero,medeleg,0
 120:	30305073          	csrrwi	zero,mideleg,0
 124:	00000193          	addi	gp,zero,0
 128:	00000297          	auipc	t0,0x0
 12c:	edc28293          	addi	t0,t0,-292 # 4 <trap_vector>
 130:	30529073          	csrrw	zero,mtvec,t0
 134:	00100513          	addi	a0,zero,1
 138:	01f51513          	slli	a0,a0,0x1f
 13c:	00054c63          	blt	a0,zero,154 <_end+0xcc>
 140:	0ff0000f          	fence	iorw,iorw
 144:	00100193          	addi	gp,zero,1
 148:	05d00893          	addi	a7,zero,93
 14c:	00000513          	addi	a0,zero,0
 150:	00000073          	ecall
 154:	00000293          	addi	t0,zero,0
 158:	00028a63          	beq	t0,zero,16c <_end+0xe4>
 15c:	10529073          	csrrw	zero,stvec,t0
 160:	0000b2b7          	lui	t0,0xb
 164:	10928293          	addi	t0,t0,265 # b109 <pass+0xace5>
 168:	30229073          	csrrw	zero,medeleg,t0
 16c:	30005073          	csrrwi	zero,mstatus,0
 170:	00000297          	auipc	t0,0x0
 174:	01428293          	addi	t0,t0,20 # 184 <test_2>
 178:	34129073          	csrrw	zero,mepc,t0
 17c:	f1402573          	csrrs	a0,mhartid,zero
 180:	30200073          	mret

00000184 <test_2>:
 184:	00200193          	addi	gp,zero,2
 188:	00ff07b7          	lui	a5,0xff0
 18c:	0ff78793          	addi	a5,a5,255 # ff00ff <pass+0xfefcdb>
 190:	00000113          	addi	sp,zero,0
 194:	00012703          	lw	a4,0(sp)
 198:	00ff03b7          	lui	t2,0xff0
 19c:	0ff38393          	addi	t2,t2,255 # ff00ff <pass+0xfefcdb>
 1a0:	26771463          	bne	a4,t2,408 <fail>

000001a4 <test_3>:
 1a4:	00300193          	addi	gp,zero,3
 1a8:	ff0107b7          	lui	a5,0xff010
 1ac:	f0078793          	addi	a5,a5,-256 # ff00ff00 <pass+0xff00fadc>
 1b0:	00000113          	addi	sp,zero,0
 1b4:	00412703          	lw	a4,4(sp)
 1b8:	ff0103b7          	lui	t2,0xff010
 1bc:	f0038393          	addi	t2,t2,-256 # ff00ff00 <pass+0xff00fadc>
 1c0:	24771463          	bne	a4,t2,408 <fail>

000001c4 <test_4>:
 1c4:	00400193          	addi	gp,zero,4
 1c8:	0ff017b7          	lui	a5,0xff01
 1cc:	ff078793          	addi	a5,a5,-16 # ff00ff0 <pass+0xff00bcc>
 1d0:	00000113          	addi	sp,zero,0
 1d4:	00812703          	lw	a4,8(sp)
 1d8:	0ff013b7          	lui	t2,0xff01
 1dc:	ff038393          	addi	t2,t2,-16 # ff00ff0 <pass+0xff00bcc>
 1e0:	22771463          	bne	a4,t2,408 <fail>

000001e4 <test_5>:
 1e4:	00500193          	addi	gp,zero,5
 1e8:	f00ff7b7          	lui	a5,0xf00ff
 1ec:	00f78793          	addi	a5,a5,15 # f00ff00f <pass+0xf00febeb>
 1f0:	00000113          	addi	sp,zero,0
 1f4:	00c12703          	lw	a4,12(sp)
 1f8:	f00ff3b7          	lui	t2,0xf00ff
 1fc:	00f38393          	addi	t2,t2,15 # f00ff00f <pass+0xf00febeb>
 200:	20771463          	bne	a4,t2,408 <fail>

00000204 <test_6>:
 204:	00600193          	addi	gp,zero,6
 208:	00ff07b7          	lui	a5,0xff0
 20c:	0ff78793          	addi	a5,a5,255 # ff00ff <pass+0xfefcdb>
 210:	00c00113          	addi	sp,zero,12
 214:	ff412703          	lw	a4,-12(sp)
 218:	00ff03b7          	lui	t2,0xff0
 21c:	0ff38393          	addi	t2,t2,255 # ff00ff <pass+0xfefcdb>
 220:	1e771463          	bne	a4,t2,408 <fail>

00000224 <test_7>:
 224:	00700193          	addi	gp,zero,7
 228:	ff0107b7          	lui	a5,0xff010
 22c:	f0078793          	addi	a5,a5,-256 # ff00ff00 <pass+0xff00fadc>
 230:	00c00113          	addi	sp,zero,12
 234:	ff812703          	lw	a4,-8(sp)
 238:	ff0103b7          	lui	t2,0xff010
 23c:	f0038393          	addi	t2,t2,-256 # ff00ff00 <pass+0xff00fadc>
 240:	1c771463          	bne	a4,t2,408 <fail>

00000244 <test_8>:
 244:	00800193          	addi	gp,zero,8
 248:	0ff017b7          	lui	a5,0xff01
 24c:	ff078793          	addi	a5,a5,-16 # ff00ff0 <pass+0xff00bcc>
 250:	00c00113          	addi	sp,zero,12
 254:	ffc12703          	lw	a4,-4(sp)
 258:	0ff013b7          	lui	t2,0xff01
 25c:	ff038393          	addi	t2,t2,-16 # ff00ff0 <pass+0xff00bcc>
 260:	1a771463          	bne	a4,t2,408 <fail>

00000264 <test_9>:
 264:	00900193          	addi	gp,zero,9
 268:	f00ff7b7          	lui	a5,0xf00ff
 26c:	00f78793          	addi	a5,a5,15 # f00ff00f <pass+0xf00febeb>
 270:	00c00113          	addi	sp,zero,12
 274:	00012703          	lw	a4,0(sp)
 278:	f00ff3b7          	lui	t2,0xf00ff
 27c:	00f38393          	addi	t2,t2,15 # f00ff00f <pass+0xf00febeb>
 280:	18771463          	bne	a4,t2,408 <fail>

00000284 <test_10>:
 284:	00a00193          	addi	gp,zero,10
 288:	00000093          	addi	ra,zero,0
 28c:	fe008093          	addi	ra,ra,-32
 290:	0200a283          	lw	t0,32(ra)
 294:	00ff03b7          	lui	t2,0xff0
 298:	0ff38393          	addi	t2,t2,255 # ff00ff <pass+0xfefcdb>
 29c:	16729663          	bne	t0,t2,408 <fail>

000002a0 <test_11>:
 2a0:	00b00193          	addi	gp,zero,11
 2a4:	00000093          	addi	ra,zero,0
 2a8:	ffd08093          	addi	ra,ra,-3
 2ac:	0070a283          	lw	t0,7(ra)
 2b0:	ff0103b7          	lui	t2,0xff010
 2b4:	f0038393          	addi	t2,t2,-256 # ff00ff00 <pass+0xff00fadc>
 2b8:	14729863          	bne	t0,t2,408 <fail>

000002bc <test_12>:
 2bc:	00c00193          	addi	gp,zero,12
 2c0:	00000213          	addi	tp,zero,0
 2c4:	00400693          	addi	a3,zero,4
 2c8:	0046a703          	lw	a4,4(a3)
 2cc:	00070313          	addi	t1,a4,0
 2d0:	0ff013b7          	lui	t2,0xff01
 2d4:	ff038393          	addi	t2,t2,-16 # ff00ff0 <pass+0xff00bcc>
 2d8:	12731863          	bne	t1,t2,408 <fail>
 2dc:	00120213          	addi	tp,tp,1 # 1 <_start+0x1>
 2e0:	00200293          	addi	t0,zero,2
 2e4:	fe5210e3          	bne	tp,t0,2c4 <test_12+0x8>

000002e8 <test_13>:
 2e8:	00d00193          	addi	gp,zero,13
 2ec:	00000213          	addi	tp,zero,0
 2f0:	00800693          	addi	a3,zero,8
 2f4:	0046a703          	lw	a4,4(a3)
 2f8:	00000013          	addi	zero,zero,0
 2fc:	00070313          	addi	t1,a4,0
 300:	f00ff3b7          	lui	t2,0xf00ff
 304:	00f38393          	addi	t2,t2,15 # f00ff00f <pass+0xf00febeb>
 308:	10731063          	bne	t1,t2,408 <fail>
 30c:	00120213          	addi	tp,tp,1 # 1 <_start+0x1>
 310:	00200293          	addi	t0,zero,2
 314:	fc521ee3          	bne	tp,t0,2f0 <test_13+0x8>

00000318 <test_14>:
 318:	00e00193          	addi	gp,zero,14
 31c:	00000213          	addi	tp,zero,0
 320:	00000693          	addi	a3,zero,0
 324:	0046a703          	lw	a4,4(a3)
 328:	00000013          	addi	zero,zero,0
 32c:	00000013          	addi	zero,zero,0
 330:	00070313          	addi	t1,a4,0
 334:	ff0103b7          	lui	t2,0xff010
 338:	f0038393          	addi	t2,t2,-256 # ff00ff00 <pass+0xff00fadc>
 33c:	0c731663          	bne	t1,t2,408 <fail>
 340:	00120213          	addi	tp,tp,1 # 1 <_start+0x1>
 344:	00200293          	addi	t0,zero,2
 348:	fc521ce3          	bne	tp,t0,320 <test_14+0x8>

0000034c <test_15>:
 34c:	00f00193          	addi	gp,zero,15
 350:	00000213          	addi	tp,zero,0
 354:	00400693          	addi	a3,zero,4
 358:	0046a703          	lw	a4,4(a3)
 35c:	0ff013b7          	lui	t2,0xff01
 360:	ff038393          	addi	t2,t2,-16 # ff00ff0 <pass+0xff00bcc>
 364:	0a771263          	bne	a4,t2,408 <fail>
 368:	00120213          	addi	tp,tp,1 # 1 <_start+0x1>
 36c:	00200293          	addi	t0,zero,2
 370:	fe5212e3          	bne	tp,t0,354 <test_15+0x8>

00000374 <test_16>:
 374:	01000193          	addi	gp,zero,16
 378:	00000213          	addi	tp,zero,0
 37c:	00800693          	addi	a3,zero,8
 380:	00000013          	addi	zero,zero,0
 384:	0046a703          	lw	a4,4(a3)
 388:	f00ff3b7          	lui	t2,0xf00ff
 38c:	00f38393          	addi	t2,t2,15 # f00ff00f <pass+0xf00febeb>
 390:	06771c63          	bne	a4,t2,408 <fail>
 394:	00120213          	addi	tp,tp,1 # 1 <_start+0x1>
 398:	00200293          	addi	t0,zero,2
 39c:	fe5210e3          	bne	tp,t0,37c <test_16+0x8>

000003a0 <test_17>:
 3a0:	01100193          	addi	gp,zero,17
 3a4:	00000213          	addi	tp,zero,0
 3a8:	00000693          	addi	a3,zero,0
 3ac:	00000013          	addi	zero,zero,0
 3b0:	00000013          	addi	zero,zero,0
 3b4:	0046a703          	lw	a4,4(a3)
 3b8:	ff0103b7          	lui	t2,0xff010
 3bc:	f0038393          	addi	t2,t2,-256 # ff00ff00 <pass+0xff00fadc>
 3c0:	04771463          	bne	a4,t2,408 <fail>
 3c4:	00120213          	addi	tp,tp,1 # 1 <_start+0x1>
 3c8:	00200293          	addi	t0,zero,2
 3cc:	fc521ee3          	bne	tp,t0,3a8 <test_17+0x8>

000003d0 <test_18>:
 3d0:	01200193          	addi	gp,zero,18
 3d4:	00000293          	addi	t0,zero,0
 3d8:	0002a103          	lw	sp,0(t0)
 3dc:	00200113          	addi	sp,zero,2
 3e0:	00200393          	addi	t2,zero,2
 3e4:	02711263          	bne	sp,t2,408 <fail>

000003e8 <test_19>:
 3e8:	01300193          	addi	gp,zero,19
 3ec:	00000293          	addi	t0,zero,0
 3f0:	0002a103          	lw	sp,0(t0)
 3f4:	00000013          	addi	zero,zero,0
 3f8:	00200113          	addi	sp,zero,2
 3fc:	00200393          	addi	t2,zero,2
 400:	00711463          	bne	sp,t2,408 <fail>
 404:	02301063          	bne	zero,gp,424 <pass>

00000408 <fail>:
 408:	0ff0000f          	fence	iorw,iorw
 40c:	00018063          	beq	gp,zero,40c <fail+0x4>
 410:	00119193          	slli	gp,gp,0x1
 414:	0011e193          	ori	gp,gp,1
 418:	05d00893          	addi	a7,zero,93
 41c:	00018513          	addi	a0,gp,0
 420:	00000073          	ecall

00000424 <pass>:
 424:	0ff0000f          	fence	iorw,iorw
 428:	00100193          	addi	gp,zero,1
 42c:	05d00893          	addi	a7,zero,93
 430:	00000513          	addi	a0,zero,0
 434:	00000073          	ecall
 438:	c0001073          	unimp
 43c:	00000013          	addi	zero,zero,0
 440:	00000013          	addi	zero,zero,0
 444:	00000013          	addi	zero,zero,0
 448:	00000013          	addi	zero,zero,0
 44c:	00000013          	addi	zero,zero,0
 450:	00000013          	addi	zero,zero,0
 454:	00000013          	addi	zero,zero,0
 458:	00000013          	addi	zero,zero,0
 45c:	00000013          	addi	zero,zero,0
 460:	00000013          	addi	zero,zero,0
 464:	00000013          	addi	zero,zero,0
 468:	00000013          	addi	zero,zero,0
